; Function Attrs: mustprogress uwtable
define noundef zeroext i1 @_ZN4base8internal10MoveUnsafeERKNS_8FilePathES3_(ptr noundef nonnull align 8 dereferenceable(32) %0, ptr noundef nonnull align 8 dereferenceable(32) %1) local_unnamed_addr #0 {
  %3 = alloca %struct.stat64, align 8
  %4 = alloca %struct.stat64, align 8
  call void @llvm.lifetime.start.p0(i64 144, ptr nonnull %3) #24
  %5 = load ptr, ptr %1, align 8, !tbaa !3
  %6 = call noundef i32 @stat64(ptr noundef readonly %5, ptr noundef nonnull %3) #24
  %7 = icmp eq i32 %6, 0
  br i1 %7, label %8, label %21

8:                                                ; preds = %2
  call void @llvm.lifetime.start.p0(i64 144, ptr nonnull %4) #24
  %9 = load ptr, ptr %0, align 8, !tbaa !3
  %10 = call noundef i32 @stat64(ptr noundef readonly %9, ptr noundef nonnull %4) #24
  %11 = icmp eq i32 %10, 0
  br i1 %11, label %12, label %.critedge

12:                                               ; preds = %8
  %13 = getelementptr inbounds nuw i8, ptr %3, i64 24
  %14 = load i32, ptr %13, align 8, !tbaa !13
  %15 = and i32 %14, 61440
  %16 = icmp eq i32 %15, 16384
  %17 = getelementptr inbounds nuw i8, ptr %4, i64 24
  %18 = load i32, ptr %17, align 8, !tbaa !13
  %19 = and i32 %18, 61440
  %20 = icmp ne i32 %19, 16384
  %.not = xor i1 %16, %20
  call void @llvm.lifetime.end.p0(i64 144, ptr nonnull %4) #24
  br i1 %.not, label %21, label %30

21:                                               ; preds = %12, %2
  %22 = load ptr, ptr %0, align 8, !tbaa !3
  %23 = load ptr, ptr %1, align 8, !tbaa !3
  %24 = tail call i32 @rename(ptr noundef %22, ptr noundef %23) #24
  %25 = icmp eq i32 %24, 0
  br i1 %25, label %30, label %26

26:                                               ; preds = %21
  %27 = tail call noundef zeroext i1 @_ZN4base13CopyDirectoryERKNS_8FilePathES2_b(ptr noundef nonnull align 8 dereferenceable(32) %0, ptr noundef nonnull align 8 dereferenceable(32) %1, i1 noundef zeroext true)
  br i1 %27, label %28, label %30

28:                                               ; preds = %26
  %29 = tail call noundef zeroext i1 @_ZN4base10DeleteFileERKNS_8FilePathEb(ptr noundef nonnull align 8 dereferenceable(32) %0, i1 noundef zeroext true)
  br label %30

.critedge:                                        ; preds = %8
  call void @llvm.lifetime.end.p0(i64 144, ptr nonnull %4) #24
  br label %30

30:                                               ; preds = %26, %21, %.critedge, %12, %28
  %.1 = phi i1 [ true, %28 ], [ false, %12 ], [ false, %.critedge ], [ true, %21 ], [ false, %26 ]
  call void @llvm.lifetime.end.p0(i64 144, ptr nonnull %3) #24
  ret i1 %.1
}